; Function Attrs: nounwind uwtable
define void @Abc_NtkMiterAddCone(ptr noundef %0, ptr noundef %1, ptr noundef %2) local_unnamed_addr #0 {
  %4 = alloca ptr, align 8
  store ptr %2, ptr %4, align 8, !tbaa !50
  %5 = tail call ptr @Abc_AigConst1(ptr noundef %1) #16
  %6 = tail call ptr @Abc_AigConst1(ptr noundef %0) #16
  %7 = getelementptr inbounds nuw i8, ptr %6, i64 64
  store ptr %5, ptr %7, align 8, !tbaa !37
  %8 = call ptr @Abc_NtkDfsNodes(ptr noundef %0, ptr noundef nonnull %4, i32 noundef 1) #16
  %9 = getelementptr i8, ptr %8, i64 4
  %.val22 = load i32, ptr %9, align 4, !tbaa !26
  %10 = icmp sgt i32 %.val22, 0
  br i1 %10, label %.lr.ph, label %.critedge

.lr.ph:                                           ; preds = %3
  %11 = getelementptr i8, ptr %8, i64 8
  %12 = getelementptr inbounds nuw i8, ptr %1, i64 256
  br label %13

13:                                               ; preds = %.lr.ph, %46
  %.val25 = phi i32 [ %.val22, %.lr.ph ], [ %.val, %46 ]
  %indvars.iv = phi i64 [ 0, %.lr.ph ], [ %indvars.iv.next, %46 ]
  %.val13 = load ptr, ptr %11, align 8, !tbaa !28
  %14 = getelementptr inbounds nuw ptr, ptr %.val13, i64 %indvars.iv
  %15 = load ptr, ptr %14, align 8, !tbaa !29
  %16 = getelementptr i8, ptr %15, i64 28
  %.val14 = load i32, ptr %16, align 4, !tbaa !30
  %.not = icmp eq i32 %.val14, 2
  br i1 %.not, label %17, label %46

17:                                               ; preds = %13
  %18 = load ptr, ptr %12, align 8, !tbaa !33
  %.val.i = load ptr, ptr %15, align 8, !tbaa !34
  %19 = getelementptr i8, ptr %15, i64 32
  %.val2.i = load ptr, ptr %19, align 8, !tbaa !35
  %20 = getelementptr i8, ptr %.val.i, i64 32
  %.val.val.i = load ptr, ptr %20, align 8, !tbaa !25
  %.val2.val.i = load i32, ptr %.val2.i, align 4, !tbaa !36
  %21 = getelementptr i8, ptr %.val.val.i, i64 8
  %.val.val.val.i = load ptr, ptr %21, align 8, !tbaa !28
  %22 = sext i32 %.val2.val.i to i64
  %23 = getelementptr inbounds ptr, ptr %.val.val.val.i, i64 %22
  %24 = load ptr, ptr %23, align 8, !tbaa !29
  %25 = getelementptr inbounds nuw i8, ptr %24, i64 64
  %26 = load ptr, ptr %25, align 8, !tbaa !37
  %27 = getelementptr i8, ptr %15, i64 20
  %.val3.i = load i32, ptr %27, align 4
  %28 = ptrtoint ptr %26 to i64
  %29 = lshr i32 %.val3.i, 10
  %.lobit.i = and i32 %29, 1
  %30 = zext nneg i32 %.lobit.i to i64
  %31 = xor i64 %30, %28
  %32 = inttoptr i64 %31 to ptr
  %33 = getelementptr i8, ptr %.val2.i, i64 4
  %.val2.val.i18 = load i32, ptr %33, align 4, !tbaa !36
  %34 = sext i32 %.val2.val.i18 to i64
  %35 = getelementptr inbounds ptr, ptr %.val.val.val.i, i64 %34
  %36 = load ptr, ptr %35, align 8, !tbaa !29
  %37 = getelementptr inbounds nuw i8, ptr %36, i64 64
  %38 = load ptr, ptr %37, align 8, !tbaa !37
  %39 = ptrtoint ptr %38 to i64
  %40 = lshr i32 %.val3.i, 11
  %.lobit.i21 = and i32 %40, 1
  %41 = zext nneg i32 %.lobit.i21 to i64
  %42 = xor i64 %39, %41
  %43 = inttoptr i64 %42 to ptr
  %44 = call ptr @Abc_AigAnd(ptr noundef %18, ptr noundef %32, ptr noundef %43) #16
  %45 = getelementptr inbounds nuw i8, ptr %15, i64 64
  store ptr %44, ptr %45, align 8, !tbaa !37
  %.val.pre = load i32, ptr %9, align 4, !tbaa !26
  br label %46

46:                                               ; preds = %13, %17
  %.val = phi i32 [ %.val25, %13 ], [ %.val.pre, %17 ]
  %indvars.iv.next = add nuw nsw i64 %indvars.iv, 1
  %47 = sext i32 %.val to i64
  %48 = icmp slt i64 %indvars.iv.next, %47
  br i1 %48, label %13, label %.critedge, !llvm.loop !51

.critedge:                                        ; preds = %46, %3
  %49 = getelementptr inbounds nuw i8, ptr %8, i64 8
  %50 = load ptr, ptr %49, align 8, !tbaa !28
  %.not.i = icmp eq ptr %50, null
  br i1 %.not.i, label %Vec_PtrFree.exit, label %51

51:                                               ; preds = %.critedge
  call void @free(ptr noundef nonnull %50) #16
  br label %Vec_PtrFree.exit

Vec_PtrFree.exit:                                 ; preds = %.critedge, %51
  call void @free(ptr noundef nonnull %8) #16
  ret void
}